target datalayout = "e-m:e-p270:32:32-p271:32:32-p272:64:64-i64:64-i128:128-f80:128-n8:16:32:64-S128"
target triple = "x86_64-pc-linux-gnu"

%struct._zend_llist = type { ptr, ptr, i64, i64, ptr, i8, ptr }
%struct._zend_extension = type { ptr, ptr, ptr, ptr, ptr, ptr, ptr, ptr, ptr, ptr, ptr, ptr, ptr, ptr, ptr, ptr, ptr, ptr, ptr, ptr, ptr, ptr, ptr, ptr, ptr, i32 }

@zend_extension_flags = dso_local global i32 0, align 4
@zend_extensions = dso_local global %struct._zend_llist zeroinitializer, align 8

; Function Attrs: nounwind uwtable
define dso_local void @zend_extension_dispatch_message(i32 noundef %0, ptr noundef %1) #0 {
  %3 = alloca i32, align 4
  %4 = alloca ptr, align 8
  store i32 %0, ptr %3, align 4, !tbaa !34
  store ptr %1, ptr %4, align 8, !tbaa !9
  %5 = load i32, ptr %3, align 4, !tbaa !34
  %6 = load ptr, ptr %4, align 8, !tbaa !9
  call void (ptr, ptr, i32, ...) @zend_llist_apply_with_arguments(ptr noundef @zend_extensions, ptr noundef @zend_extension_message_dispatcher, i32 noundef 2, i32 noundef %5, ptr noundef %6)
  ret void
}

; Function Attrs: nounwind uwtable
define dso_local void @zend_register_extension(ptr noundef %0, ptr noundef %1) #0 {
  %3 = alloca ptr, align 8
  %4 = alloca ptr, align 8
  %5 = alloca %struct._zend_extension, align 8
  store ptr %0, ptr %3, align 8, !tbaa !14
  store ptr %1, ptr %4, align 8, !tbaa !9
  call void @llvm.lifetime.start.p0(i64 208, ptr %5) #11
  %6 = load ptr, ptr %3, align 8, !tbaa !14
  call void @llvm.memcpy.p0.p0.i64(ptr align 8 %5, ptr align 8 %6, i64 208, i1 false), !tbaa.struct !33
  %7 = load ptr, ptr %4, align 8, !tbaa !9
  %8 = getelementptr inbounds nuw %struct._zend_extension, ptr %5, i32 0, i32 24
  store ptr %7, ptr %8, align 8, !tbaa !35
  call void @zend_extension_dispatch_message(i32 noundef 1, ptr noundef %5)
  call void @zend_llist_add_element(ptr noundef @zend_extensions, ptr noundef %5)
  %9 = getelementptr inbounds nuw %struct._zend_extension, ptr %5, i32 0, i32 14
  %10 = load ptr, ptr %9, align 8, !tbaa !36
  %11 = icmp ne ptr %10, null
  br i1 %11, label %12, label %15

12:                                               ; preds = %2
  %13 = load i32, ptr @zend_extension_flags, align 4, !tbaa !34
  %14 = or i32 %13, 1
  store i32 %14, ptr @zend_extension_flags, align 4, !tbaa !34
  br label %15

15:                                               ; preds = %12, %2
  %16 = getelementptr inbounds nuw %struct._zend_extension, ptr %5, i32 0, i32 15
  %17 = load ptr, ptr %16, align 8, !tbaa !37
  %18 = icmp ne ptr %17, null
  br i1 %18, label %19, label %22

19:                                               ; preds = %15
  %20 = load i32, ptr @zend_extension_flags, align 4, !tbaa !34
  %21 = or i32 %20, 2
  store i32 %21, ptr @zend_extension_flags, align 4, !tbaa !34
  br label %22

22:                                               ; preds = %19, %15
  %23 = getelementptr inbounds nuw %struct._zend_extension, ptr %5, i32 0, i32 10
  %24 = load ptr, ptr %23, align 8, !tbaa !38
  %25 = icmp ne ptr %24, null
  br i1 %25, label %26, label %29

26:                                               ; preds = %22
  %27 = load i32, ptr @zend_extension_flags, align 4, !tbaa !34
  %28 = or i32 %27, 4
  store i32 %28, ptr @zend_extension_flags, align 4, !tbaa !34
  br label %29

29:                                               ; preds = %26, %22
  %30 = getelementptr inbounds nuw %struct._zend_extension, ptr %5, i32 0, i32 18
  %31 = load ptr, ptr %30, align 8, !tbaa !39
  %32 = icmp ne ptr %31, null
  br i1 %32, label %33, label %36

33:                                               ; preds = %29
  %34 = load i32, ptr @zend_extension_flags, align 4, !tbaa !34
  %35 = or i32 %34, 8
  store i32 %35, ptr @zend_extension_flags, align 4, !tbaa !34
  br label %36

36:                                               ; preds = %33, %29
  %37 = getelementptr inbounds nuw %struct._zend_extension, ptr %5, i32 0, i32 19
  %38 = load ptr, ptr %37, align 8, !tbaa !40
  %39 = icmp ne ptr %38, null
  br i1 %39, label %40, label %43

40:                                               ; preds = %36
  %41 = load i32, ptr @zend_extension_flags, align 4, !tbaa !34
  %42 = or i32 %41, 16
  store i32 %42, ptr @zend_extension_flags, align 4, !tbaa !34
  br label %43

43:                                               ; preds = %40, %36
  call void @llvm.lifetime.end.p0(i64 208, ptr %5) #11
  ret void
}