; Function Attrs: nounwind uwtable
define dso_local void @zend_register_extension(ptr noundef readonly captures(none) %0, ptr noundef %1) local_unnamed_addr #0 {
  %3 = alloca %struct._zend_extension, align 8
  call void @llvm.lifetime.start.p0(i64 208, ptr nonnull %3) #14
  call void @llvm.memcpy.p0.p0.i64(ptr noundef nonnull align 8 dereferenceable(208) %3, ptr noundef nonnull align 8 dereferenceable(208) %0, i64 208, i1 false), !tbaa.struct !22
  %4 = getelementptr inbounds nuw i8, ptr %3, i64 192
  store ptr %1, ptr %4, align 8, !tbaa !26
  call void (ptr, ptr, i32, ...) @zend_llist_apply_with_arguments(ptr noundef nonnull @zend_extensions, ptr noundef nonnull @zend_extension_message_dispatcher, i32 noundef 2, i32 noundef 1, ptr noundef nonnull %3) #14
  call void @zend_llist_add_element(ptr noundef nonnull @zend_extensions, ptr noundef nonnull %3) #14
  %5 = getelementptr inbounds nuw i8, ptr %3, i64 112
  %6 = load ptr, ptr %5, align 8, !tbaa !27
  %.not = icmp eq ptr %6, null
  br i1 %.not, label %10, label %7

7:                                                ; preds = %2
  %8 = load i32, ptr @zend_extension_flags, align 4, !tbaa !25
  %9 = or i32 %8, 1
  store i32 %9, ptr @zend_extension_flags, align 4, !tbaa !25
  br label %10

10:                                               ; preds = %7, %2
  %11 = getelementptr inbounds nuw i8, ptr %3, i64 120
  %12 = load ptr, ptr %11, align 8, !tbaa !28
  %.not2 = icmp eq ptr %12, null
  br i1 %.not2, label %16, label %13

13:                                               ; preds = %10
  %14 = load i32, ptr @zend_extension_flags, align 4, !tbaa !25
  %15 = or i32 %14, 2
  store i32 %15, ptr @zend_extension_flags, align 4, !tbaa !25
  br label %16

16:                                               ; preds = %13, %10
  %17 = getelementptr inbounds nuw i8, ptr %3, i64 80
  %18 = load ptr, ptr %17, align 8, !tbaa !29
  %.not3 = icmp eq ptr %18, null
  br i1 %.not3, label %22, label %19

19:                                               ; preds = %16
  %20 = load i32, ptr @zend_extension_flags, align 4, !tbaa !25
  %21 = or i32 %20, 4
  store i32 %21, ptr @zend_extension_flags, align 4, !tbaa !25
  br label %22

22:                                               ; preds = %19, %16
  %23 = getelementptr inbounds nuw i8, ptr %3, i64 144
  %24 = load ptr, ptr %23, align 8, !tbaa !30
  %.not4 = icmp eq ptr %24, null
  br i1 %.not4, label %28, label %25

25:                                               ; preds = %22
  %26 = load i32, ptr @zend_extension_flags, align 4, !tbaa !25
  %27 = or i32 %26, 8
  store i32 %27, ptr @zend_extension_flags, align 4, !tbaa !25
  br label %28

28:                                               ; preds = %25, %22
  %29 = getelementptr inbounds nuw i8, ptr %3, i64 152
  %30 = load ptr, ptr %29, align 8, !tbaa !31
  %.not5 = icmp eq ptr %30, null
  br i1 %.not5, label %34, label %31

31:                                               ; preds = %28
  %32 = load i32, ptr @zend_extension_flags, align 4, !tbaa !25
  %33 = or i32 %32, 16
  store i32 %33, ptr @zend_extension_flags, align 4, !tbaa !25
  br label %34

34:                                               ; preds = %31, %28
  call void @llvm.lifetime.end.p0(i64 208, ptr nonnull %3) #14
  ret void
}